target datalayout = "e-m:e-p270:32:32-p271:32:32-p272:64:64-i64:64-i128:128-f80:128-n8:16:32:64-S128"
target triple = "x86_64-pc-linux-gnu"

@author_ident_explicitly_given = internal global i32 0, align 4
@.str.10 = private unnamed_addr constant [16 x i8] c"GIT_AUTHOR_NAME\00", align 1
@.str.11 = private unnamed_addr constant [17 x i8] c"GIT_AUTHOR_EMAIL\00", align 1
@.str.14 = private unnamed_addr constant [16 x i8] c"GIT_AUTHOR_DATE\00", align 1

; Function Attrs: nounwind uwtable
define dso_local ptr @git_author_info(i32 noundef %0) #0 {
  %2 = alloca i32, align 4
  store i32 %0, ptr %2, align 4, !tbaa !4
  %3 = call ptr @getenv(ptr noundef @.str.10) #10
  %4 = icmp ne ptr %3, null
  br i1 %4, label %5, label %8

5:                                                ; preds = %1
  %6 = load i32, ptr @author_ident_explicitly_given, align 4, !tbaa !4
  %7 = or i32 %6, 1
  store i32 %7, ptr @author_ident_explicitly_given, align 4, !tbaa !4
  br label %8

8:                                                ; preds = %5, %1
  %9 = call ptr @getenv(ptr noundef @.str.11) #10
  %10 = icmp ne ptr %9, null
  br i1 %10, label %11, label %14

11:                                               ; preds = %8
  %12 = load i32, ptr @author_ident_explicitly_given, align 4, !tbaa !4
  %13 = or i32 %12, 2
  store i32 %13, ptr @author_ident_explicitly_given, align 4, !tbaa !4
  br label %14

14:                                               ; preds = %11, %8
  %15 = call ptr @getenv(ptr noundef @.str.10) #10
  %16 = call ptr @getenv(ptr noundef @.str.11) #10
  %17 = call ptr @getenv(ptr noundef @.str.14) #10
  %18 = load i32, ptr %2, align 4, !tbaa !4
  %19 = call ptr @fmt_ident(ptr noundef %15, ptr noundef %16, i32 noundef 1, ptr noundef %17, i32 noundef %18)
  ret ptr %19
}